target datalayout = "e-m:e-p270:32:32-p271:32:32-p272:64:64-i64:64-i128:128-f80:128-n8:16:32:64-S128"
target triple = "x86_64-pc-linux-gnu"

%class.ciExceptionHandlerStream = type <{ ptr, i32, i32, ptr, i32, i8, [3 x i8] }>

; Function Attrs: mustprogress nounwind uwtable
define linkonce_odr hidden noundef zeroext i1 @_ZN24ciExceptionHandlerStream7is_doneEv(ptr noundef nonnull align 8 dereferenceable(29) %0) #1 comdat align 2 {
  %2 = alloca ptr, align 8
  store ptr %0, ptr %2, align 8
  %3 = load ptr, ptr %2, align 8
  %4 = getelementptr inbounds %class.ciExceptionHandlerStream, ptr %3, i32 0, i32 1
  %5 = load i32, ptr %4, align 8
  %6 = getelementptr inbounds %class.ciExceptionHandlerStream, ptr %3, i32 0, i32 2
  %7 = load i32, ptr %6, align 4
  %8 = icmp sge i32 %5, %7
  ret i1 %8
}

; Function Attrs: mustprogress nounwind uwtable
define hidden noundef i32 @_ZN24ciExceptionHandlerStream15count_remainingEv(ptr noundef nonnull align 8 dereferenceable(29) %0) #1 align 2 {
  %2 = alloca ptr, align 8
  %3 = alloca i32, align 4
  %4 = alloca i32, align 4
  %5 = alloca i32, align 4
  store ptr %0, ptr %2, align 8
  %6 = load ptr, ptr %2, align 8
  %7 = getelementptr inbounds %class.ciExceptionHandlerStream, ptr %6, i32 0, i32 1
  %8 = load i32, ptr %7, align 8
  store i32 %8, ptr %3, align 4
  %9 = getelementptr inbounds %class.ciExceptionHandlerStream, ptr %6, i32 0, i32 2
  %10 = load i32, ptr %9, align 4
  store i32 %10, ptr %4, align 4
  store i32 0, ptr %5, align 4
  br label %11

11:                                               ; preds = %14, %1
  %12 = call noundef zeroext i1 @_ZN24ciExceptionHandlerStream7is_doneEv(ptr noundef nonnull align 8 dereferenceable(29) %6)
  %13 = xor i1 %12, true
  br i1 %13, label %14, label %17

14:                                               ; preds = %11
  %15 = load i32, ptr %5, align 4
  %16 = add nsw i32 %15, 1
  store i32 %16, ptr %5, align 4
  call void @_ZN24ciExceptionHandlerStream4nextEv(ptr noundef nonnull align 8 dereferenceable(29) %6)
  br label %11, !llvm.loop !9

17:                                               ; preds = %11
  %18 = load i32, ptr %3, align 4
  %19 = getelementptr inbounds %class.ciExceptionHandlerStream, ptr %6, i32 0, i32 1
  store i32 %18, ptr %19, align 8
  %20 = load i32, ptr %4, align 4
  %21 = getelementptr inbounds %class.ciExceptionHandlerStream, ptr %6, i32 0, i32 2
  store i32 %20, ptr %21, align 4
  %22 = load i32, ptr %5, align 4
  ret i32 %22
}