; Function Attrs: mustprogress nounwind uwtable
define hidden noundef i32 @_ZN24ciExceptionHandlerStream15count_remainingEv(ptr noundef nonnull align 8 dereferenceable(29) %0) local_unnamed_addr #0 align 2 {
  %2 = getelementptr inbounds i8, ptr %0, i64 8
  %3 = load i32, ptr %2, align 8
  %4 = getelementptr inbounds i8, ptr %0, i64 12
  %5 = load i32, ptr %4, align 4
  %.not4 = icmp slt i32 %3, %5
  br i1 %.not4, label %.lr.ph, label %._crit_edge

.lr.ph:                                           ; preds = %1, %.lr.ph
  %.05 = phi i32 [ %6, %.lr.ph ], [ 0, %1 ]
  %6 = add nuw nsw i32 %.05, 1
  tail call void @_ZN24ciExceptionHandlerStream4nextEv(ptr noundef nonnull align 8 dereferenceable(29) %0)
  %7 = load i32, ptr %2, align 8
  %8 = load i32, ptr %4, align 4
  %.not = icmp slt i32 %7, %8
  br i1 %.not, label %.lr.ph, label %._crit_edge, !llvm.loop !9

._crit_edge:                                      ; preds = %.lr.ph, %1
  %.0.lcssa = phi i32 [ 0, %1 ], [ %6, %.lr.ph ]
  store i32 %3, ptr %2, align 8
  store i32 %5, ptr %4, align 4
  ret i32 %.0.lcssa
}